target datalayout = "e-m:e-p270:32:32-p271:32:32-p272:64:64-i64:64-i128:128-f80:128-n8:16:32:64-S128"
target triple = "x86_64-pc-linux-gnu"

%struct.opj_stream_private = type { ptr, ptr, i64, ptr, ptr, ptr, ptr, ptr, ptr, ptr, ptr, i64, i64, i64, i32 }

@.str.1 = private unnamed_addr constant [26 x i8] c"Error on writing stream!\0A\00", align 1

; Function Attrs: nounwind uwtable
define hidden i32 @opj_stream_flush(ptr noundef %0, ptr noundef %1) #0 {
  %3 = alloca i32, align 4
  %4 = alloca ptr, align 8
  %5 = alloca ptr, align 8
  %6 = alloca i64, align 8
  %7 = alloca i32, align 4
  store ptr %0, ptr %4, align 8, !tbaa !30
  store ptr %1, ptr %5, align 8, !tbaa !43
  call void @llvm.lifetime.start.p0(i64 8, ptr %6) #4
  store i64 0, ptr %6, align 8, !tbaa !28
  %8 = load ptr, ptr %4, align 8, !tbaa !30
  %9 = getelementptr inbounds nuw %struct.opj_stream_private, ptr %8, i32 0, i32 7
  %10 = load ptr, ptr %9, align 8, !tbaa !34
  %11 = load ptr, ptr %4, align 8, !tbaa !30
  %12 = getelementptr inbounds nuw %struct.opj_stream_private, ptr %11, i32 0, i32 8
  store ptr %10, ptr %12, align 8, !tbaa !35
  br label %13

13:                                               ; preds = %41, %2
  %14 = load ptr, ptr %4, align 8, !tbaa !30
  %15 = getelementptr inbounds nuw %struct.opj_stream_private, ptr %14, i32 0, i32 11
  %16 = load i64, ptr %15, align 8, !tbaa !45
  %17 = icmp ne i64 %16, 0
  br i1 %17, label %18, label %52

18:                                               ; preds = %13
  %19 = load ptr, ptr %4, align 8, !tbaa !30
  %20 = getelementptr inbounds nuw %struct.opj_stream_private, ptr %19, i32 0, i32 4
  %21 = load ptr, ptr %20, align 8, !tbaa !40
  %22 = load ptr, ptr %4, align 8, !tbaa !30
  %23 = getelementptr inbounds nuw %struct.opj_stream_private, ptr %22, i32 0, i32 8
  %24 = load ptr, ptr %23, align 8, !tbaa !35
  %25 = load ptr, ptr %4, align 8, !tbaa !30
  %26 = getelementptr inbounds nuw %struct.opj_stream_private, ptr %25, i32 0, i32 11
  %27 = load i64, ptr %26, align 8, !tbaa !45
  %28 = load ptr, ptr %4, align 8, !tbaa !30
  %29 = getelementptr inbounds nuw %struct.opj_stream_private, ptr %28, i32 0, i32 0
  %30 = load ptr, ptr %29, align 8, !tbaa !48
  %31 = call i64 %21(ptr noundef %24, i64 noundef %27, ptr noundef %30)
  store i64 %31, ptr %6, align 8, !tbaa !28
  %32 = load i64, ptr %6, align 8, !tbaa !28
  %33 = icmp eq i64 %32, -1
  br i1 %33, label %34, label %41

34:                                               ; preds = %18
  %35 = load ptr, ptr %4, align 8, !tbaa !30
  %36 = getelementptr inbounds nuw %struct.opj_stream_private, ptr %35, i32 0, i32 14
  %37 = load i32, ptr %36, align 8, !tbaa !36
  %38 = or i32 %37, 8
  store i32 %38, ptr %36, align 8, !tbaa !36
  %39 = load ptr, ptr %5, align 8, !tbaa !43
  %40 = call i32 (ptr, i32, ptr, ...) @opj_event_msg(ptr noundef %39, i32 noundef 4, ptr noundef @.str.1)
  store i32 0, ptr %3, align 4
  store i32 1, ptr %7, align 4
  br label %58

41:                                               ; preds = %18
  %42 = load i64, ptr %6, align 8, !tbaa !28
  %43 = load ptr, ptr %4, align 8, !tbaa !30
  %44 = getelementptr inbounds nuw %struct.opj_stream_private, ptr %43, i32 0, i32 8
  %45 = load ptr, ptr %44, align 8, !tbaa !35
  %46 = getelementptr inbounds nuw i8, ptr %45, i64 %42
  store ptr %46, ptr %44, align 8, !tbaa !35
  %47 = load i64, ptr %6, align 8, !tbaa !28
  %48 = load ptr, ptr %4, align 8, !tbaa !30
  %49 = getelementptr inbounds nuw %struct.opj_stream_private, ptr %48, i32 0, i32 11
  %50 = load i64, ptr %49, align 8, !tbaa !45
  %51 = sub i64 %50, %47
  store i64 %51, ptr %49, align 8, !tbaa !45
  br label %13, !llvm.loop !55

52:                                               ; preds = %13
  %53 = load ptr, ptr %4, align 8, !tbaa !30
  %54 = getelementptr inbounds nuw %struct.opj_stream_private, ptr %53, i32 0, i32 7
  %55 = load ptr, ptr %54, align 8, !tbaa !34
  %56 = load ptr, ptr %4, align 8, !tbaa !30
  %57 = getelementptr inbounds nuw %struct.opj_stream_private, ptr %56, i32 0, i32 8
  store ptr %55, ptr %57, align 8, !tbaa !35
  store i32 1, ptr %3, align 4
  store i32 1, ptr %7, align 4
  br label %58

58:                                               ; preds = %52, %34
  call void @llvm.lifetime.end.p0(i64 8, ptr %6) #4
  %59 = load i32, ptr %3, align 4
  ret i32 %59
}

; Function Attrs: nounwind uwtable
define hidden i64 @opj_stream_write_data(ptr noundef %0, ptr noundef %1, i64 noundef %2, ptr noundef %3) #0 {
  %5 = alloca i64, align 8
  %6 = alloca ptr, align 8
  %7 = alloca ptr, align 8
  %8 = alloca i64, align 8
  %9 = alloca ptr, align 8
  %10 = alloca i64, align 8
  %11 = alloca i64, align 8
  %12 = alloca i32, align 4
  store ptr %0, ptr %6, align 8, !tbaa !30
  store ptr %1, ptr %7, align 8, !tbaa !3
  store i64 %2, ptr %8, align 8, !tbaa !28
  store ptr %3, ptr %9, align 8, !tbaa !43
  call void @llvm.lifetime.start.p0(i64 8, ptr %10) #4
  store i64 0, ptr %10, align 8, !tbaa !28
  call void @llvm.lifetime.start.p0(i64 8, ptr %11) #4
  store i64 0, ptr %11, align 8, !tbaa !28
  %13 = load ptr, ptr %6, align 8, !tbaa !30
  %14 = getelementptr inbounds nuw %struct.opj_stream_private, ptr %13, i32 0, i32 14
  %15 = load i32, ptr %14, align 8, !tbaa !36
  %16 = and i32 %15, 8
  %17 = icmp ne i32 %16, 0
  br i1 %17, label %18, label %19

18:                                               ; preds = %4
  store i64 -1, ptr %5, align 8
  store i32 1, ptr %12, align 4
  br label %96

19:                                               ; preds = %4
  br label %20

20:                                               ; preds = %95, %19
  %21 = load ptr, ptr %6, align 8, !tbaa !30
  %22 = getelementptr inbounds nuw %struct.opj_stream_private, ptr %21, i32 0, i32 13
  %23 = load i64, ptr %22, align 8, !tbaa !32
  %24 = load ptr, ptr %6, align 8, !tbaa !30
  %25 = getelementptr inbounds nuw %struct.opj_stream_private, ptr %24, i32 0, i32 11
  %26 = load i64, ptr %25, align 8, !tbaa !45
  %27 = sub i64 %23, %26
  store i64 %27, ptr %10, align 8, !tbaa !28
  %28 = load i64, ptr %10, align 8, !tbaa !28
  %29 = load i64, ptr %8, align 8, !tbaa !28
  %30 = icmp uge i64 %28, %29
  br i1 %30, label %31, label %56

31:                                               ; preds = %20
  %32 = load ptr, ptr %6, align 8, !tbaa !30
  %33 = getelementptr inbounds nuw %struct.opj_stream_private, ptr %32, i32 0, i32 8
  %34 = load ptr, ptr %33, align 8, !tbaa !35
  %35 = load ptr, ptr %7, align 8, !tbaa !3
  %36 = load i64, ptr %8, align 8, !tbaa !28
  call void @llvm.memcpy.p0.p0.i64(ptr align 1 %34, ptr align 1 %35, i64 %36, i1 false)
  %37 = load i64, ptr %8, align 8, !tbaa !28
  %38 = load ptr, ptr %6, align 8, !tbaa !30
  %39 = getelementptr inbounds nuw %struct.opj_stream_private, ptr %38, i32 0, i32 8
  %40 = load ptr, ptr %39, align 8, !tbaa !35
  %41 = getelementptr inbounds nuw i8, ptr %40, i64 %37
  store ptr %41, ptr %39, align 8, !tbaa !35
  %42 = load i64, ptr %8, align 8, !tbaa !28
  %43 = load ptr, ptr %6, align 8, !tbaa !30
  %44 = getelementptr inbounds nuw %struct.opj_stream_private, ptr %43, i32 0, i32 11
  %45 = load i64, ptr %44, align 8, !tbaa !45
  %46 = add i64 %45, %42
  store i64 %46, ptr %44, align 8, !tbaa !45
  %47 = load i64, ptr %8, align 8, !tbaa !28
  %48 = load i64, ptr %11, align 8, !tbaa !28
  %49 = add i64 %48, %47
  store i64 %49, ptr %11, align 8, !tbaa !28
  %50 = load i64, ptr %8, align 8, !tbaa !28
  %51 = load ptr, ptr %6, align 8, !tbaa !30
  %52 = getelementptr inbounds nuw %struct.opj_stream_private, ptr %51, i32 0, i32 12
  %53 = load i64, ptr %52, align 8, !tbaa !46
  %54 = add nsw i64 %53, %50
  store i64 %54, ptr %52, align 8, !tbaa !46
  %55 = load i64, ptr %11, align 8, !tbaa !28
  store i64 %55, ptr %5, align 8
  store i32 1, ptr %12, align 4
  br label %96

56:                                               ; preds = %20
  %57 = load i64, ptr %10, align 8, !tbaa !28
  %58 = icmp ne i64 %57, 0
  br i1 %58, label %59, label %89

59:                                               ; preds = %56
  %60 = load i64, ptr %10, align 8, !tbaa !28
  %61 = load i64, ptr %11, align 8, !tbaa !28
  %62 = add i64 %61, %60
  store i64 %62, ptr %11, align 8, !tbaa !28
  %63 = load ptr, ptr %6, align 8, !tbaa !30
  %64 = getelementptr inbounds nuw %struct.opj_stream_private, ptr %63, i32 0, i32 8
  %65 = load ptr, ptr %64, align 8, !tbaa !35
  %66 = load ptr, ptr %7, align 8, !tbaa !3
  %67 = load i64, ptr %10, align 8, !tbaa !28
  call void @llvm.memcpy.p0.p0.i64(ptr align 1 %65, ptr align 1 %66, i64 %67, i1 false)
  %68 = load ptr, ptr %6, align 8, !tbaa !30
  %69 = getelementptr inbounds nuw %struct.opj_stream_private, ptr %68, i32 0, i32 7
  %70 = load ptr, ptr %69, align 8, !tbaa !34
  %71 = load ptr, ptr %6, align 8, !tbaa !30
  %72 = getelementptr inbounds nuw %struct.opj_stream_private, ptr %71, i32 0, i32 8
  store ptr %70, ptr %72, align 8, !tbaa !35
  %73 = load i64, ptr %10, align 8, !tbaa !28
  %74 = load ptr, ptr %7, align 8, !tbaa !3
  %75 = getelementptr inbounds nuw i8, ptr %74, i64 %73
  store ptr %75, ptr %7, align 8, !tbaa !3
  %76 = load i64, ptr %10, align 8, !tbaa !28
  %77 = load i64, ptr %8, align 8, !tbaa !28
  %78 = sub i64 %77, %76
  store i64 %78, ptr %8, align 8, !tbaa !28
  %79 = load i64, ptr %10, align 8, !tbaa !28
  %80 = load ptr, ptr %6, align 8, !tbaa !30
  %81 = getelementptr inbounds nuw %struct.opj_stream_private, ptr %80, i32 0, i32 11
  %82 = load i64, ptr %81, align 8, !tbaa !45
  %83 = add i64 %82, %79
  store i64 %83, ptr %81, align 8, !tbaa !45
  %84 = load i64, ptr %10, align 8, !tbaa !28
  %85 = load ptr, ptr %6, align 8, !tbaa !30
  %86 = getelementptr inbounds nuw %struct.opj_stream_private, ptr %85, i32 0, i32 12
  %87 = load i64, ptr %86, align 8, !tbaa !46
  %88 = add nsw i64 %87, %84
  store i64 %88, ptr %86, align 8, !tbaa !46
  br label %89

89:                                               ; preds = %59, %56
  %90 = load ptr, ptr %6, align 8, !tbaa !30
  %91 = load ptr, ptr %9, align 8, !tbaa !43
  %92 = call i32 @opj_stream_flush(ptr noundef %90, ptr noundef %91)
  %93 = icmp ne i32 %92, 0
  br i1 %93, label %95, label %94

94:                                               ; preds = %89
  store i64 -1, ptr %5, align 8
  store i32 1, ptr %12, align 4
  br label %96

95:                                               ; preds = %89
  br label %20

96:                                               ; preds = %94, %31, %18
  call void @llvm.lifetime.end.p0(i64 8, ptr %11) #4
  call void @llvm.lifetime.end.p0(i64 8, ptr %10) #4
  %97 = load i64, ptr %5, align 8
  ret i64 %97
}