; Function Attrs: nounwind uwtable
define hidden i64 @opj_stream_write_data(ptr noundef captures(none) %0, ptr noundef readonly captures(none) %1, i64 noundef %2, ptr noundef %3) local_unnamed_addr #5 {
  %5 = getelementptr inbounds nuw i8, ptr %0, i64 112
  %6 = load i32, ptr %5, align 8, !tbaa !26
  %7 = and i32 %6, 8
  %.not = icmp eq i32 %7, 0
  br i1 %.not, label %.preheader, label %60

.preheader:                                       ; preds = %4
  %8 = getelementptr inbounds nuw i8, ptr %0, i64 104
  %9 = getelementptr inbounds nuw i8, ptr %0, i64 88
  %10 = load i64, ptr %8, align 8, !tbaa !19
  %11 = load i64, ptr %9, align 8, !tbaa !33
  %12 = sub i64 %10, %11
  %.not4150 = icmp ult i64 %12, %2
  %13 = getelementptr inbounds nuw i8, ptr %0, i64 64
  br i1 %.not4150, label %.lr.ph, label %.preheader.._crit_edge_crit_edge

.preheader.._crit_edge_crit_edge:                 ; preds = %.preheader
  %.pre61 = load ptr, ptr %13, align 8, !tbaa !25
  br label %._crit_edge

.lr.ph:                                           ; preds = %.preheader
  %14 = getelementptr inbounds nuw i8, ptr %0, i64 56
  %15 = getelementptr inbounds nuw i8, ptr %0, i64 96
  %16 = getelementptr inbounds nuw i8, ptr %0, i64 32
  br label %27

._crit_edge:                                      ; preds = %opj_stream_flush.exit, %.preheader.._crit_edge_crit_edge
  %17 = phi ptr [ %.pre61, %.preheader.._crit_edge_crit_edge ], [ %58, %opj_stream_flush.exit ]
  %.038.lcssa = phi ptr [ %1, %.preheader.._crit_edge_crit_edge ], [ %.139, %opj_stream_flush.exit ]
  %.036.lcssa = phi i64 [ %2, %.preheader.._crit_edge_crit_edge ], [ %.137, %opj_stream_flush.exit ]
  %.0.lcssa = phi i64 [ 0, %.preheader.._crit_edge_crit_edge ], [ %.1, %opj_stream_flush.exit ]
  %18 = getelementptr inbounds nuw i8, ptr %0, i64 64
  tail call void @llvm.memcpy.p0.p0.i64(ptr align 1 %17, ptr align 1 %.038.lcssa, i64 %.036.lcssa, i1 false)
  %19 = load ptr, ptr %18, align 8, !tbaa !25
  %20 = getelementptr inbounds nuw i8, ptr %19, i64 %.036.lcssa
  store ptr %20, ptr %18, align 8, !tbaa !25
  %21 = load i64, ptr %9, align 8, !tbaa !33
  %22 = add i64 %21, %.036.lcssa
  store i64 %22, ptr %9, align 8, !tbaa !33
  %23 = add i64 %.0.lcssa, %.036.lcssa
  %24 = getelementptr inbounds nuw i8, ptr %0, i64 96
  %25 = load i64, ptr %24, align 8, !tbaa !34
  %26 = add nsw i64 %25, %.036.lcssa
  store i64 %26, ptr %24, align 8, !tbaa !34
  br label %60

27:                                               ; preds = %.lr.ph, %opj_stream_flush.exit
  %28 = phi i64 [ %11, %.lr.ph ], [ 0, %opj_stream_flush.exit ]
  %29 = phi i64 [ %12, %.lr.ph ], [ %59, %opj_stream_flush.exit ]
  %30 = phi i64 [ %10, %.lr.ph ], [ %59, %opj_stream_flush.exit ]
  %.053 = phi i64 [ 0, %.lr.ph ], [ %.1, %opj_stream_flush.exit ]
  %.03652 = phi i64 [ %2, %.lr.ph ], [ %.137, %opj_stream_flush.exit ]
  %.03851 = phi ptr [ %1, %.lr.ph ], [ %.139, %opj_stream_flush.exit ]
  %.not42 = icmp eq i64 %30, %28
  br i1 %.not42, label %._crit_edge60, label %31

._crit_edge60:                                    ; preds = %27
  %.pre = load ptr, ptr %14, align 8, !tbaa !24
  br label %41

31:                                               ; preds = %27
  %32 = add i64 %29, %.053
  %33 = load ptr, ptr %13, align 8, !tbaa !25
  tail call void @llvm.memcpy.p0.p0.i64(ptr align 1 %33, ptr align 1 %.03851, i64 %29, i1 false)
  %34 = load ptr, ptr %14, align 8, !tbaa !24
  %35 = getelementptr inbounds nuw i8, ptr %.03851, i64 %29
  %36 = sub i64 %.03652, %29
  %37 = load i64, ptr %9, align 8, !tbaa !33
  %38 = add i64 %37, %29
  store i64 %38, ptr %9, align 8, !tbaa !33
  %39 = load i64, ptr %15, align 8, !tbaa !34
  %40 = add nsw i64 %39, %29
  store i64 %40, ptr %15, align 8, !tbaa !34
  br label %41

41:                                               ; preds = %._crit_edge60, %31
  %42 = phi i64 [ %38, %31 ], [ %28, %._crit_edge60 ]
  %43 = phi ptr [ %34, %31 ], [ %.pre, %._crit_edge60 ]
  %.139 = phi ptr [ %35, %31 ], [ %.03851, %._crit_edge60 ]
  %.137 = phi i64 [ %36, %31 ], [ %.03652, %._crit_edge60 ]
  %.1 = phi i64 [ %32, %31 ], [ %.053, %._crit_edge60 ]
  store ptr %43, ptr %13, align 8, !tbaa !25
  %.not18.i = icmp eq i64 %42, 0
  br i1 %.not18.i, label %opj_stream_flush.exit, label %.lr.ph.i

.lr.ph.i:                                         ; preds = %41, %53
  %44 = phi ptr [ %55, %53 ], [ %43, %41 ]
  %45 = phi i64 [ %57, %53 ], [ %42, %41 ]
  %46 = load ptr, ptr %16, align 8, !tbaa !30
  %47 = load ptr, ptr %0, align 8, !tbaa !36
  %48 = tail call i64 %46(ptr noundef %44, i64 noundef %45, ptr noundef %47) #9
  %49 = icmp eq i64 %48, -1
  br i1 %49, label %opj_stream_flush.exit.thread, label %53

opj_stream_flush.exit.thread:                     ; preds = %.lr.ph.i
  %50 = load i32, ptr %5, align 8, !tbaa !26
  %51 = or i32 %50, 8
  store i32 %51, ptr %5, align 8, !tbaa !26
  %52 = tail call i32 (ptr, i32, ptr, ...) @opj_event_msg(ptr noundef %3, i32 noundef 4, ptr noundef nonnull @.str.1) #9
  br label %60

53:                                               ; preds = %.lr.ph.i
  %54 = load ptr, ptr %13, align 8, !tbaa !25
  %55 = getelementptr inbounds nuw i8, ptr %54, i64 %48
  store ptr %55, ptr %13, align 8, !tbaa !25
  %56 = load i64, ptr %9, align 8, !tbaa !33
  %57 = sub i64 %56, %48
  store i64 %57, ptr %9, align 8, !tbaa !33
  %.not.i = icmp eq i64 %57, 0
  br i1 %.not.i, label %._crit_edge.loopexit.i, label %.lr.ph.i, !llvm.loop !38

._crit_edge.loopexit.i:                           ; preds = %53
  %.pre.i = load ptr, ptr %14, align 8, !tbaa !24
  br label %opj_stream_flush.exit

opj_stream_flush.exit:                            ; preds = %41, %._crit_edge.loopexit.i
  %58 = phi ptr [ %.pre.i, %._crit_edge.loopexit.i ], [ %43, %41 ]
  store ptr %58, ptr %13, align 8, !tbaa !25
  %59 = load i64, ptr %8, align 8, !tbaa !19
  %.not41 = icmp ult i64 %59, %.137
  br i1 %.not41, label %27, label %._crit_edge

60:                                               ; preds = %opj_stream_flush.exit.thread, %4, %._crit_edge
  %.035 = phi i64 [ %23, %._crit_edge ], [ -1, %4 ], [ -1, %opj_stream_flush.exit.thread ]
  ret i64 %.035
}